target datalayout = "e-m:e-p270:32:32-p271:32:32-p272:64:64-i64:64-i128:128-f80:128-n8:16:32:64-S128"
target triple = "x86_64-pc-linux-gnu"

%struct.BEValue = type { i8, i32, ptr, ptr, ptr }
%struct.GenContext_ = type { i8, ptr, ptr, ptr, ptr, ptr, ptr, ptr, ptr, ptr, ptr, ptr, ptr, ptr, ptr, ptr, ptr, ptr, ptr, ptr, ptr, ptr, ptr, ptr, ptr, ptr, ptr, ptr, ptr, ptr, ptr, ptr, ptr, %struct.anon.85, i32, i32, %struct.DebugContext, ptr, ptr, ptr, %struct.BEValue, i8, %union.SourceSpan, ptr, ptr, ptr, ptr }
%struct.anon.85 = type { ptr, ptr, ptr }
%struct.DebugContext = type { i16, ptr, ptr, %struct.DebugFile_, ptr, ptr, ptr, ptr }
%struct.DebugFile_ = type { i16, ptr }
%union.SourceSpan = type { i64 }
%struct.ConstInitializer_ = type { i32, ptr, %union.anon.100 }
%union.anon.100 = type { %struct.anon.101 }
%struct.anon.101 = type { ptr, i32 }

@.str.34 = private unnamed_addr constant [9 x i8] c".__const\00", align 1

; Function Attrs: nounwind uwtable
define dso_local void @llvm_emit_initialize_reference_temporary_const(ptr noundef %0, ptr noundef %1, ptr noundef %2) #0 {
  %4 = alloca ptr, align 8
  %5 = alloca ptr, align 8
  %6 = alloca ptr, align 8
  %7 = alloca i32, align 4
  %8 = alloca ptr, align 8
  %9 = alloca ptr, align 8
  %10 = alloca ptr, align 8
  %11 = alloca ptr, align 8
  %12 = alloca i8, align 1
  %13 = alloca ptr, align 8
  %14 = alloca i32, align 4
  %15 = alloca ptr, align 8
  %16 = alloca ptr, align 8
  store ptr %0, ptr %9, align 8
  store ptr %1, ptr %10, align 8
  store ptr %2, ptr %11, align 8
  store i8 0, ptr %12, align 1
  %17 = load ptr, ptr %9, align 8
  %18 = load ptr, ptr %11, align 8
  %19 = call ptr @llvm_emit_const_initializer(ptr noundef %17, ptr noundef %18)
  store ptr %19, ptr %13, align 8
  %20 = load ptr, ptr %11, align 8
  %21 = getelementptr inbounds %struct.ConstInitializer_, ptr %20, i32 0, i32 1
  %22 = load ptr, ptr %21, align 8
  %23 = call i32 @type_alloca_alignment(ptr noundef %22)
  store i32 %23, ptr %14, align 4
  %24 = load ptr, ptr %13, align 8
  %25 = call ptr @LLVMTypeOf(ptr noundef %24)
  store ptr %25, ptr %15, align 8
  %26 = load ptr, ptr %9, align 8
  %27 = load ptr, ptr %15, align 8
  %28 = load i32, ptr %14, align 4
  store ptr %26, ptr %4, align 8
  store ptr @.str.34, ptr %5, align 8
  store ptr %27, ptr %6, align 8
  store i32 %28, ptr %7, align 4
  %29 = load ptr, ptr %4, align 8
  %30 = getelementptr inbounds %struct.GenContext_, ptr %29, i32 0, i32 1
  %31 = load ptr, ptr %30, align 8
  %32 = load ptr, ptr %6, align 8
  %33 = load ptr, ptr %5, align 8
  %34 = call ptr @LLVMAddGlobal(ptr noundef %31, ptr noundef %32, ptr noundef %33) #8
  store ptr %34, ptr %8, align 8
  %35 = load ptr, ptr %8, align 8
  %36 = load i32, ptr %7, align 4
  %37 = icmp ne i32 %36, 0
  br i1 %37, label %38, label %40

38:                                               ; preds = %3
  %39 = load i32, ptr %7, align 4
  br label %46

40:                                               ; preds = %3
  %41 = load ptr, ptr %4, align 8
  %42 = getelementptr inbounds %struct.GenContext_, ptr %41, i32 0, i32 4
  %43 = load ptr, ptr %42, align 8
  %44 = load ptr, ptr %8, align 8
  %45 = call i32 @LLVMPreferredAlignmentOfGlobal(ptr noundef %43, ptr noundef %44) #8
  br label %46

46:                                               ; preds = %40, %38
  %47 = phi i32 [ %39, %38 ], [ %45, %40 ]
  call void @LLVMSetAlignment(ptr noundef %35, i32 noundef %47) #8
  %48 = load ptr, ptr %8, align 8
  store ptr %48, ptr %16, align 8
  %49 = load ptr, ptr %16, align 8
  call void @llvm_set_private_linkage(ptr noundef %49)
  %50 = load ptr, ptr %16, align 8
  call void @LLVMSetUnnamedAddress(ptr noundef %50, i32 noundef 2)
  %51 = load ptr, ptr %16, align 8
  %52 = load ptr, ptr %13, align 8
  call void @LLVMSetInitializer(ptr noundef %51, ptr noundef %52)
  %53 = load ptr, ptr %16, align 8
  call void @LLVMSetGlobalConstant(ptr noundef %53, i32 noundef 1)
  %54 = load ptr, ptr %9, align 8
  %55 = load ptr, ptr %10, align 8
  call void @llvm_value_addr(ptr noundef %54, ptr noundef %55)
  %56 = load ptr, ptr %9, align 8
  %57 = load ptr, ptr %10, align 8
  %58 = getelementptr inbounds %struct.BEValue, ptr %57, i32 0, i32 3
  %59 = load ptr, ptr %58, align 8
  %60 = load ptr, ptr %10, align 8
  %61 = getelementptr inbounds %struct.BEValue, ptr %60, i32 0, i32 1
  %62 = load i32, ptr %61, align 4
  %63 = load ptr, ptr %16, align 8
  %64 = load i32, ptr %14, align 4
  %65 = load ptr, ptr %11, align 8
  %66 = getelementptr inbounds %struct.ConstInitializer_, ptr %65, i32 0, i32 1
  %67 = load ptr, ptr %66, align 8
  %68 = call i32 @type_size(ptr noundef %67)
  %69 = zext i32 %68 to i64
  %70 = call ptr @llvm_emit_memcpy(ptr noundef %56, ptr noundef %59, i32 noundef %62, ptr noundef %63, i32 noundef %64, i64 noundef %69)
  ret void
}