; Function Attrs: nounwind uwtable
define dso_local void @llvm_emit_initialize_reference_temporary_const(ptr noundef %0, ptr noundef %1, ptr noundef %2) local_unnamed_addr #0 {
  %4 = tail call ptr @llvm_emit_const_initializer(ptr noundef %0, ptr noundef %2) #10
  %5 = getelementptr inbounds i8, ptr %2, i64 8
  %6 = load ptr, ptr %5, align 8
  %7 = tail call i32 @type_alloca_alignment(ptr noundef %6) #10
  %8 = tail call ptr @LLVMTypeOf(ptr noundef %4) #10
  %9 = getelementptr inbounds i8, ptr %0, i64 8
  %10 = load ptr, ptr %9, align 8
  %11 = tail call ptr @LLVMAddGlobal(ptr noundef %10, ptr noundef %8, ptr noundef nonnull @.str.34) #10
  %.not = icmp eq i32 %7, 0
  br i1 %.not, label %12, label %16

12:                                               ; preds = %3
  %13 = getelementptr inbounds i8, ptr %0, i64 32
  %14 = load ptr, ptr %13, align 8
  %15 = tail call i32 @LLVMPreferredAlignmentOfGlobal(ptr noundef %14, ptr noundef %11) #10
  br label %16

16:                                               ; preds = %3, %12
  %17 = phi i32 [ %15, %12 ], [ %7, %3 ]
  tail call void @LLVMSetAlignment(ptr noundef %11, i32 noundef %17) #10
  tail call void @llvm_set_private_linkage(ptr noundef %11) #10
  tail call void @LLVMSetUnnamedAddress(ptr noundef %11, i32 noundef 2) #10
  tail call void @LLVMSetInitializer(ptr noundef %11, ptr noundef %4) #10
  tail call void @LLVMSetGlobalConstant(ptr noundef %11, i32 noundef 1) #10
  tail call void @llvm_value_addr(ptr noundef nonnull %0, ptr noundef %1) #10
  %18 = getelementptr inbounds i8, ptr %1, i64 16
  %19 = load ptr, ptr %18, align 8
  %20 = getelementptr inbounds i8, ptr %1, i64 4
  %21 = load i32, ptr %20, align 4
  %22 = load ptr, ptr %5, align 8
  %23 = tail call i32 @type_size(ptr noundef %22) #10
  %24 = zext i32 %23 to i64
  %25 = tail call ptr @llvm_emit_memcpy(ptr noundef nonnull %0, ptr noundef %19, i32 noundef %21, ptr noundef %11, i32 noundef %7, i64 noundef %24) #10
  ret void
}